target datalayout = "e-m:e-p270:32:32-p271:32:32-p272:64:64-i64:64-i128:128-f80:128-n8:16:32:64-S128"
target triple = "x86_64-pc-linux-gnu"

%"class.std::__cxx11::basic_string" = type { %"struct.std::__cxx11::basic_string<char>::_Alloc_hider", i64, %union.anon }
%"struct.std::__cxx11::basic_string<char>::_Alloc_hider" = type { ptr }
%union.anon = type { i64, [8 x i8] }

@.str.4 = private unnamed_addr constant [13 x i8] c"%s/%s.XXXXXX\00", align 1

; Function Attrs: mustprogress uwtable
define noundef i32 @_ZN32pxrInternal_v0_24__pxrReserved__15ArchMakeTmpFileERKNSt7__cxx1112basic_stringIcSt11char_traitsIcESaIcEEES7_PS5_(ptr noundef nonnull align 8 dereferenceable(32) %0, ptr noundef nonnull align 8 dereferenceable(32) %1, ptr noundef %2) #0 personality ptr @__gxx_personality_v0 {
  %4 = alloca ptr, align 8
  %5 = alloca ptr, align 8
  %6 = alloca ptr, align 8
  %7 = alloca %"class.std::__cxx11::basic_string", align 8
  %8 = alloca ptr, align 8
  %9 = alloca i32, align 4
  %10 = alloca ptr, align 8
  %11 = alloca i32, align 4
  store ptr %0, ptr %4, align 8
  store ptr %1, ptr %5, align 8
  store ptr %2, ptr %6, align 8
  %12 = load ptr, ptr %4, align 8
  %13 = call noundef ptr @_ZNKSt7__cxx1112basic_stringIcSt11char_traitsIcESaIcEE5c_strEv(ptr noundef nonnull align 8 dereferenceable(32) %12) #6
  %14 = load ptr, ptr %5, align 8
  %15 = call noundef ptr @_ZNKSt7__cxx1112basic_stringIcSt11char_traitsIcESaIcEE5c_strEv(ptr noundef nonnull align 8 dereferenceable(32) %14) #6
  call void (ptr, ptr, ...) @_ZN32pxrInternal_v0_24__pxrReserved__16ArchStringPrintfB5cxx11EPKcz(ptr dead_on_unwind writable sret(%"class.std::__cxx11::basic_string") align 8 %7, ptr noundef @.str.4, ptr noundef %13, ptr noundef %15)
  %16 = call noundef i64 @_ZNKSt7__cxx1112basic_stringIcSt11char_traitsIcESaIcEE4sizeEv(ptr noundef nonnull align 8 dereferenceable(32) %7) #6
  %17 = add i64 %16, 1
  %18 = alloca i8, i64 %17, align 16
  store ptr %18, ptr %8, align 8
  %19 = load ptr, ptr %8, align 8
  %20 = call noundef ptr @_ZNKSt7__cxx1112basic_stringIcSt11char_traitsIcESaIcEE5c_strEv(ptr noundef nonnull align 8 dereferenceable(32) %7) #6
  %21 = call ptr @strcpy(ptr noundef %19, ptr noundef %20) #6
  %22 = load ptr, ptr %8, align 8
  %23 = invoke i32 @mkstemp(ptr noundef %22)
          to label %24 unwind label %30

24:                                               ; preds = %3
  store i32 %23, ptr %9, align 4
  %25 = load i32, ptr %9, align 4
  %26 = icmp ne i32 %25, -1
  br i1 %26, label %27, label %34

27:                                               ; preds = %24
  %28 = load i32, ptr %9, align 4
  %29 = call i32 @fchmod(i32 noundef %28, i32 noundef 416) #6
  br label %34

30:                                               ; preds = %40, %3
  %31 = landingpad { ptr, i32 }
          cleanup
  %32 = extractvalue { ptr, i32 } %31, 0
  store ptr %32, ptr %10, align 8
  %33 = extractvalue { ptr, i32 } %31, 1
  store i32 %33, ptr %11, align 4
  call void @_ZNSt7__cxx1112basic_stringIcSt11char_traitsIcESaIcEED1Ev(ptr noundef nonnull align 8 dereferenceable(32) %7) #6
  br label %48

34:                                               ; preds = %27, %24
  %35 = load i32, ptr %9, align 4
  %36 = icmp ne i32 %35, -1
  br i1 %36, label %37, label %46

37:                                               ; preds = %34
  %38 = load ptr, ptr %6, align 8
  %39 = icmp ne ptr %38, null
  br i1 %39, label %40, label %45

40:                                               ; preds = %37
  %41 = load ptr, ptr %8, align 8
  %42 = load ptr, ptr %6, align 8
  %43 = invoke noundef nonnull align 8 dereferenceable(32) ptr @_ZNSt7__cxx1112basic_stringIcSt11char_traitsIcESaIcEEaSEPKc(ptr noundef nonnull align 8 dereferenceable(32) %42, ptr noundef %41)
          to label %44 unwind label %30

44:                                               ; preds = %40
  br label %45

45:                                               ; preds = %44, %37
  br label %46

46:                                               ; preds = %45, %34
  %47 = load i32, ptr %9, align 4
  call void @_ZNSt7__cxx1112basic_stringIcSt11char_traitsIcESaIcEED1Ev(ptr noundef nonnull align 8 dereferenceable(32) %7) #6
  ret i32 %47

48:                                               ; preds = %30
  %49 = load ptr, ptr %10, align 8
  %50 = load i32, ptr %11, align 4
  %51 = insertvalue { ptr, i32 } poison, ptr %49, 0
  %52 = insertvalue { ptr, i32 } %51, i32 %50, 1
  resume { ptr, i32 } %52
}